(i__main__
LogFile
p0
(dp1
S'_installed_files'
p2
(dp3
S'../../../../../../lhcb/sw/lhcb/GAUDI/GAUDI_v21r8/GaudiPolicy/cmt/fragments/__init__.py'
p4
S'../../InstallArea/python/FileStager/__init__.py'
p5
sS'../../../../GAUDI/GAUDI_v21r7/GaudiPolicy/cmt/fragments/__init__.py'
p6
S'../../InstallArea/python/FileStager/__init__.py'
p7
sS'../../../../../../lhcb/sw/lhcb/GAUDI/GAUDI_v21r9/GaudiPolicy/cmt/fragments/__init__.py'
p8
S'../../InstallArea/python/FileStager/__init__.py'
p9
sS'../../../FileStager/x86_64-slc5-gcc43-opt/libFileStager.so'
p10
S'../../InstallArea/x86_64-slc5-gcc43-opt/lib/libFileStager.so'
p11
sS'../../FileStager/FileStager'
p12
(dp13
S'../../../FileStager/FileStager/IFileStagerSvc.h'
p14
S'../../InstallArea/include/FileStager/IFileStagerSvc.h'
p15
ssS'../../../FileStager/x86_64-slc5-gcc43-opt/GarbageCollector.exe'
p16
S'../../InstallArea/x86_64-slc5-gcc43-opt/bin/GarbageCollector.exe'
p17
sS'../../FileStager/genConf/FileStager'
p18
(dp19
S'../../../FileStager/genConf/FileStager/FileStager_user_confDb.py'
p20
S'../../InstallArea/python/FileStager/FileStager_user_confDb.py'
p21
sS'../../../FileStager/genConf/FileStager/FileStagerConf.py'
p22
S'../../InstallArea/python/FileStager/FileStagerConf.py'
p23
sS'../../../FileStager/genConf/FileStager/FileStager_confDb.py'
p24
S'../../InstallArea/python/FileStager/FileStager_confDb.py'
p25
ssS'../../../FileStager/x86_64-slc5-gcc43-opt/libFileStagerDict.so'
p26
S'../../InstallArea/x86_64-slc5-gcc43-opt/lib/libFileStagerDict.so'
p27
ssb.